target datalayout = "e-m:e-p270:32:32-p271:32:32-p272:64:64-i64:64-i128:128-f80:128-n8:16:32:64-S128"
target triple = "x86_64-pc-linux-gnu"

%struct._zend_output_globals = type { %struct._zend_stack, ptr, ptr, ptr, i32, i32 }
%struct._zend_stack = type { i32, i32, i32, ptr }
%struct._zend_refcounted_h = type { i32, %union.anon }
%union.anon = type { i32 }
%struct._zend_string = type { %struct._zend_refcounted_h, i64, i64, [1 x i8] }
%struct._php_output_buffer = type { ptr, i64, i64, i32 }
%struct._php_output_handler = type { ptr, i32, i32, i64, %struct._php_output_buffer, ptr, ptr, %union.anon.2 }
%union.anon.2 = type { ptr }

@output_globals = dso_local global %struct._zend_output_globals zeroinitializer, align 8

; Function Attrs: alwaysinline nounwind uwtable
define internal zeroext i1 @zend_string_equals_cstr(ptr noundef %0, ptr noundef %1, i64 noundef %2) #5 {
  %4 = alloca ptr, align 8
  %5 = alloca ptr, align 8
  %6 = alloca i64, align 8
  store ptr %0, ptr %4, align 8, !tbaa !56
  store ptr %1, ptr %5, align 8, !tbaa !15
  store i64 %2, ptr %6, align 8, !tbaa !17
  %7 = load ptr, ptr %4, align 8, !tbaa !56
  %8 = getelementptr inbounds nuw %struct._zend_string, ptr %7, i32 0, i32 2
  %9 = load i64, ptr %8, align 8, !tbaa !79
  %10 = load i64, ptr %6, align 8, !tbaa !17
  %11 = icmp eq i64 %9, %10
  br i1 %11, label %12, label %21

12:                                               ; preds = %3
  %13 = load ptr, ptr %4, align 8, !tbaa !56
  %14 = getelementptr inbounds nuw %struct._zend_string, ptr %13, i32 0, i32 3
  %15 = getelementptr inbounds [1 x i8], ptr %14, i64 0, i64 0
  %16 = load ptr, ptr %5, align 8, !tbaa !15
  %17 = load i64, ptr %6, align 8, !tbaa !17
  %18 = call i32 @memcmp(ptr noundef %15, ptr noundef %16, i64 noundef %17) #18
  %19 = icmp ne i32 %18, 0
  %20 = xor i1 %19, true
  br label %21

21:                                               ; preds = %12, %3
  %22 = phi i1 [ false, %3 ], [ %20, %12 ]
  ret i1 %22
}

; Function Attrs: nounwind uwtable
define dso_local i32 @php_output_get_level() #0 {
  %1 = load ptr, ptr getelementptr inbounds nuw (%struct._zend_output_globals, ptr @output_globals, i32 0, i32 1), align 8, !tbaa !29
  %2 = icmp ne ptr %1, null
  br i1 %2, label %3, label %5

3:                                                ; preds = %0
  %4 = call i32 @zend_stack_count(ptr noundef @output_globals)
  br label %6

5:                                                ; preds = %0
  br label %6

6:                                                ; preds = %5, %3
  %7 = phi i32 [ %4, %3 ], [ 0, %5 ]
  ret i32 %7
}

; Function Attrs: nounwind uwtable
define dso_local zeroext i1 @php_output_handler_started(ptr noundef %0, i64 noundef %1) #0 {
  %3 = alloca i1, align 1
  %4 = alloca ptr, align 8
  %5 = alloca i64, align 8
  %6 = alloca ptr, align 8
  %7 = alloca i32, align 4
  %8 = alloca i32, align 4
  %9 = alloca i32, align 4
  store ptr %0, ptr %4, align 8, !tbaa !15
  store i64 %1, ptr %5, align 8, !tbaa !17
  call void @llvm.lifetime.start.p0(i64 8, ptr %6) #15
  call void @llvm.lifetime.start.p0(i64 4, ptr %7) #15
  call void @llvm.lifetime.start.p0(i64 4, ptr %8) #15
  %10 = call i32 @php_output_get_level()
  store i32 %10, ptr %8, align 4, !tbaa !57
  %11 = load i32, ptr %8, align 4, !tbaa !57
  %12 = icmp ne i32 %11, 0
  br i1 %12, label %13, label %36

13:                                               ; preds = %2
  %14 = call ptr @zend_stack_base(ptr noundef @output_globals)
  store ptr %14, ptr %6, align 8, !tbaa !27
  store i32 0, ptr %7, align 4, !tbaa !57
  br label %15

15:                                               ; preds = %32, %13
  %16 = load i32, ptr %7, align 4, !tbaa !57
  %17 = load i32, ptr %8, align 4, !tbaa !57
  %18 = icmp slt i32 %16, %17
  br i1 %18, label %19, label %35

19:                                               ; preds = %15
  %20 = load ptr, ptr %6, align 8, !tbaa !27
  %21 = load i32, ptr %7, align 4, !tbaa !57
  %22 = sext i32 %21 to i64
  %23 = getelementptr inbounds ptr, ptr %20, i64 %22
  %24 = load ptr, ptr %23, align 8, !tbaa !55
  %25 = getelementptr inbounds nuw %struct._php_output_handler, ptr %24, i32 0, i32 0
  %26 = load ptr, ptr %25, align 8, !tbaa !82
  %27 = load ptr, ptr %4, align 8, !tbaa !15
  %28 = load i64, ptr %5, align 8, !tbaa !17
  %29 = call zeroext i1 @zend_string_equals_cstr(ptr noundef %26, ptr noundef %27, i64 noundef %28)
  br i1 %29, label %30, label %31

30:                                               ; preds = %19
  store i1 true, ptr %3, align 1
  store i32 1, ptr %9, align 4
  br label %37

31:                                               ; preds = %19
  br label %32

32:                                               ; preds = %31
  %33 = load i32, ptr %7, align 4, !tbaa !57
  %34 = add nsw i32 %33, 1
  store i32 %34, ptr %7, align 4, !tbaa !57
  br label %15

35:                                               ; preds = %15
  br label %36

36:                                               ; preds = %35, %2
  store i1 false, ptr %3, align 1
  store i32 1, ptr %9, align 4
  br label %37

37:                                               ; preds = %36, %30
  call void @llvm.lifetime.end.p0(i64 4, ptr %8) #15
  call void @llvm.lifetime.end.p0(i64 4, ptr %7) #15
  call void @llvm.lifetime.end.p0(i64 8, ptr %6) #15
  %38 = load i1, ptr %3, align 1
  ret i1 %38
}