; Function Attrs: nounwind uwtable
define dso_local noundef zeroext i1 @php_output_handler_started(ptr noundef readonly captures(none) %0, i64 noundef %1) local_unnamed_addr #0 {
  %3 = load ptr, ptr getelementptr inbounds nuw (i8, ptr @output_globals, i64 24), align 8, !tbaa !46
  %.not.i10 = icmp eq ptr %3, null
  br i1 %.not.i10, label %php_output_get_level.exit.thread, label %php_output_get_level.exit

php_output_get_level.exit:                        ; preds = %2
  %4 = tail call i32 @zend_stack_count(ptr noundef nonnull @output_globals) #22
  %.not = icmp eq i32 %4, 0
  br i1 %.not, label %php_output_get_level.exit.thread, label %5

5:                                                ; preds = %php_output_get_level.exit
  %6 = tail call ptr @zend_stack_base(ptr noundef nonnull @output_globals) #22
  %7 = icmp sgt i32 %4, 0
  br i1 %7, label %.lr.ph.preheader, label %php_output_get_level.exit.thread

.lr.ph.preheader:                                 ; preds = %5
  %wide.trip.count = zext nneg i32 %4 to i64
  br label %.lr.ph

.lr.ph:                                           ; preds = %.lr.ph.preheader, %zend_string_equals_cstr.exit.thread
  %indvars.iv = phi i64 [ 0, %.lr.ph.preheader ], [ %indvars.iv.next, %zend_string_equals_cstr.exit.thread ]
  %8 = getelementptr inbounds nuw ptr, ptr %6, i64 %indvars.iv
  %9 = load ptr, ptr %8, align 8, !tbaa !18
  %10 = load ptr, ptr %9, align 8, !tbaa !78
  %11 = getelementptr inbounds nuw i8, ptr %10, i64 16
  %12 = load i64, ptr %11, align 8, !tbaa !70
  %13 = icmp eq i64 %12, %1
  br i1 %13, label %zend_string_equals_cstr.exit, label %zend_string_equals_cstr.exit.thread

zend_string_equals_cstr.exit:                     ; preds = %.lr.ph
  %14 = getelementptr inbounds nuw i8, ptr %10, i64 24
  %bcmp.i = tail call i32 @bcmp(ptr nonnull %14, ptr %0, i64 %1)
  %.not.i = icmp eq i32 %bcmp.i, 0
  br i1 %.not.i, label %php_output_get_level.exit.thread, label %zend_string_equals_cstr.exit.thread

zend_string_equals_cstr.exit.thread:              ; preds = %.lr.ph, %zend_string_equals_cstr.exit
  %indvars.iv.next = add nuw nsw i64 %indvars.iv, 1
  %exitcond.not = icmp eq i64 %indvars.iv.next, %wide.trip.count
  br i1 %exitcond.not, label %php_output_get_level.exit.thread, label %.lr.ph

php_output_get_level.exit.thread:                 ; preds = %zend_string_equals_cstr.exit, %zend_string_equals_cstr.exit.thread, %5, %2, %php_output_get_level.exit
  %.0 = phi i1 [ false, %php_output_get_level.exit ], [ false, %2 ], [ false, %5 ], [ true, %zend_string_equals_cstr.exit ], [ false, %zend_string_equals_cstr.exit.thread ]
  ret i1 %.0
}